(i__main__
Prior
p0
(dp1
S'target_genes'
p2
(lp3
S'gene1'
p4
aS'gene2'
p5
asS'peaks_file'
p6
S'./input-tests/peaks_test_file.bed'
p7
sS'peaks'
p8
ccopy_reg
_reconstructor
p9
(cpybedtools.bedtool
BedTool
p10
c__builtin__
object
p11
Ntp12
Rp13
(dp14
S'_hascounts'
p15
I00
sS'remote'
p16
I00
sS'_file_type'
p17
NsS'_tag'
p18
S'vybtllgc'
p19
sS'_isbam'
p20
I00
sS'_cmds'
p21
(lp22
S'sortBed'
p23
aS'-i'
p24
ag7
asS'_bam_header'
p25
S''
p26
sS'fn'
p27
S'/var/folders/9q/08_y8sfd1rzbd5rd_zmykzlr0000gn/T/pybedtools.tYmYTT.tmp'
p28
sS'history'
p29
g9
(cpybedtools.bedtool
History
p30
c__builtin__
list
p31
(lp32
g9
(cpybedtools.bedtool
HistoryStep
p33
g11
Ntp34
Rp35
(dp36
S'parent_tag'
p37
S'xhyzksst'
p38
sS'args'
p39
(tsS'result_tag'
p40
g19
sS'kwargs'
p41
(dp42
sS'method'
p43
S'sort'
p44
sg27
g7
sbatp45
Rp46
sbsS'upstream_in_matrix'
p47
I50
sS'bam_file'
p48
S'./input-tests/bam_test_file.bam'
p49
sS'edges'
p50
(lp51
(i__main__
Edge
p52
(dp53
S'distance'
p54
I91
sS'motif'
p55
(S'chr1'
p56
S'20725795'
p57
S'20725810'
p58
S'TF2'
p59
tp60
sS'target'
p61
S'gene2'
p62
sS'weight'
p63
I1
sS'regulator'
p64
S'TF2'
p65
sS'peak'
p66
S'peak_1'
p67
sS'gene'
p68
(S'chr1'
p69
S'20725699'
p70
S'20725699'
p71
S'gene2'
p72
tp73
sba(i__main__
Edge
p74
(dp75
g54
I91
sg55
(S'chr1'
p76
S'20725846'
p77
S'20725857'
p78
S'TF1'
p79
tp80
sg61
S'gene2'
p81
sg63
I1
sg64
S'TF1'
p82
sg66
S'peak_1'
p83
sg68
(S'chr1'
p84
S'20725699'
p85
S'20725699'
p86
S'gene2'
p87
tp88
sba(i__main__
Edge
p89
(dp90
g54
I3286
sg55
(S'chr1'
p91
S'20736215'
p92
S'20736230'
p93
S'TF3'
p94
tp95
sg61
S'gene1'
p96
sg63
I1
sg64
S'TF3'
p97
sg66
S'peak_2'
p98
sg68
(S'chr1'
p99
S'20732903'
p100
S'20732903'
p101
S'gene1'
p102
tp103
sbasS'max_downstream_distance'
p104
Finf
sS'cluster'
p105
I01
sS'motifs_file'
p106
S'./input-tests/motifs_test_file.bed'
p107
sS'tss_file'
p108
S'./input-tests/tsses_test_file.bed'
p109
sS'transcription_factors'
p110
(lp111
S'TF1'
p112
aS'TF2'
p113
aS'TF3'
p114
asS'motifs'
p115
g9
(g10
g11
Ntp116
Rp117
(dp118
g15
I00
sg16
I00
sg17
Nsg18
S'uqhkzhvo'
p119
sg20
I00
sg21
(lp120
g23
aS'-i'
p121
aS'/var/folders/9q/08_y8sfd1rzbd5rd_zmykzlr0000gn/T/pybedtools.88CRgY.tmp'
p122
asg25
g26
sg27
S'/var/folders/9q/08_y8sfd1rzbd5rd_zmykzlr0000gn/T/pybedtools.y9ZWzh.tmp'
p123
sg29
g9
(g30
g31
(lp124
g9
(g33
g11
Ntp125
Rp126
(dp127
g37
S'yqelgzse'
p128
sg39
(tsg40
g119
sg41
(dp129
sg43
g44
sg27
g122
sbatp130
Rp131
sbsS'max_upstream_distance'
p132
Finf
sS'downstream_in_matrix'
p133
I50
sS'tss'
p134
g9
(g10
g11
Ntp135
Rp136
(dp137
g15
I00
sg16
I00
sg17
Nsg18
S'sfyzlnwf'
p138
sg20
I00
sg21
(lp139
g23
aS'-i'
p140
ag109
asg25
g26
sg27
S'/var/folders/9q/08_y8sfd1rzbd5rd_zmykzlr0000gn/T/pybedtools.zD9cpx.tmp'
p141
sg29
g9
(g30
g31
(lp142
g9
(g33
g11
Ntp143
Rp144
(dp145
g37
S'fzdrrspo'
p146
sg39
(tsg40
g138
sg41
(dp147
sg43
g44
sg27
g109
sbatp148
Rp149
sbsb.